target datalayout = "e-m:e-p270:32:32-p271:32:32-p272:64:64-i64:64-i128:128-f80:128-n8:16:32:64-S128"
target triple = "x86_64-pc-linux-gnu"

@H5_libterm_g = external global i8, align 1
@.str = private unnamed_addr constant [97 x i8] c"generated/home/dtcxzyw/WorkSpace/Projects/compilers/llvm-opt-benchmark/bench/hdf5/hdf5/src/H5Z.c\00", align 1
@H5E_PLINE_g = external global i64, align 8
@H5E_CANTINIT_g = external global i64, align 8
@H5_libinit_g = external global i8, align 1
@H5E_FUNC_g = external global i64, align 8
@.str.6 = private unnamed_addr constant [30 x i8] c"library initialization failed\00", align 1
@H5E_CANTSET_g = external global i64, align 8
@.str.7 = private unnamed_addr constant [22 x i8] c"can't set API context\00", align 1
@H5E_ARGS_g = external global i64, align 8
@H5E_BADVALUE_g = external global i64, align 8
@.str.9 = private unnamed_addr constant [37 x i8] c"invalid filter identification number\00", align 1
@.str.10 = private unnamed_addr constant [36 x i8] c"unable to modify predefined filters\00", align 1
@__func__.H5Zunregister = private unnamed_addr constant [14 x i8] c"H5Zunregister\00", align 1
@.str.14 = private unnamed_addr constant [28 x i8] c"unable to unregister filter\00", align 1

; Function Attrs: nounwind uwtable
define i32 @H5Zunregister(i32 noundef %0) #0 {
  %2 = alloca i32, align 4
  %3 = alloca i32, align 4
  %4 = alloca i8, align 1
  %5 = alloca i8, align 1
  store i32 %0, ptr %2, align 4
  store i32 0, ptr %3, align 4
  store i8 0, ptr %4, align 1
  store i8 0, ptr %5, align 1
  %6 = load i8, ptr @H5_libinit_g, align 1
  %7 = trunc i8 %6 to i1
  br i1 %7, label %12, label %8

8:                                                ; preds = %1
  %9 = load i8, ptr @H5_libterm_g, align 1
  %10 = trunc i8 %9 to i1
  %11 = xor i1 %10, true
  br label %12

12:                                               ; preds = %8, %1
  %13 = phi i1 [ false, %1 ], [ %11, %8 ]
  %14 = xor i1 %13, true
  %15 = xor i1 %14, true
  %16 = zext i1 %15 to i32
  %17 = sext i32 %16 to i64
  %18 = icmp ne i64 %17, 0
  br i1 %18, label %19, label %43

19:                                               ; preds = %12
  %20 = call i32 @H5_init_library()
  %21 = icmp slt i32 %20, 0
  %22 = xor i1 %21, true
  %23 = xor i1 %22, true
  %24 = zext i1 %23 to i32
  %25 = sext i32 %24 to i64
  %26 = icmp ne i64 %25, 0
  br i1 %26, label %27, label %42

27:                                               ; preds = %19
  br label %28

28:                                               ; preds = %27
  br label %29

29:                                               ; preds = %28
  br label %30

30:                                               ; preds = %29
  %31 = load i64, ptr @H5E_FUNC_g, align 8
  %32 = load i64, ptr @H5E_CANTINIT_g, align 8
  %33 = call i32 (ptr, ptr, i32, i64, i64, ptr, ...) @H5E_printf_stack(ptr noundef @.str, ptr noundef @__func__.H5Zunregister, i32 noundef 359, i64 noundef %31, i64 noundef %32, ptr noundef @.str.6)
  br label %34

34:                                               ; preds = %30
  store i8 1, ptr %5, align 1
  %35 = load i8, ptr %5, align 1
  %36 = trunc i8 %35 to i1
  %37 = zext i1 %36 to i8
  store i8 %37, ptr %5, align 1
  br label %38

38:                                               ; preds = %34
  br label %39

39:                                               ; preds = %38
  store i32 -1, ptr %3, align 4
  br label %127

40:                                               ; No predecessors!
  br label %41

41:                                               ; preds = %40
  br label %42

42:                                               ; preds = %41, %19
  br label %43

43:                                               ; preds = %42, %12
  %44 = call i32 @H5CX_push()
  %45 = icmp slt i32 %44, 0
  %46 = xor i1 %45, true
  %47 = xor i1 %46, true
  %48 = zext i1 %47 to i32
  %49 = sext i32 %48 to i64
  %50 = icmp ne i64 %49, 0
  br i1 %50, label %51, label %66

51:                                               ; preds = %43
  br label %52

52:                                               ; preds = %51
  br label %53

53:                                               ; preds = %52
  br label %54

54:                                               ; preds = %53
  %55 = load i64, ptr @H5E_FUNC_g, align 8
  %56 = load i64, ptr @H5E_CANTSET_g, align 8
  %57 = call i32 (ptr, ptr, i32, i64, i64, ptr, ...) @H5E_printf_stack(ptr noundef @.str, ptr noundef @__func__.H5Zunregister, i32 noundef 359, i64 noundef %55, i64 noundef %56, ptr noundef @.str.7)
  br label %58

58:                                               ; preds = %54
  store i8 1, ptr %5, align 1
  %59 = load i8, ptr %5, align 1
  %60 = trunc i8 %59 to i1
  %61 = zext i1 %60 to i8
  store i8 %61, ptr %5, align 1
  br label %62

62:                                               ; preds = %58
  br label %63

63:                                               ; preds = %62
  store i32 -1, ptr %3, align 4
  br label %127

64:                                               ; No predecessors!
  br label %65

65:                                               ; preds = %64
  br label %67

66:                                               ; preds = %43
  store i8 1, ptr %4, align 1
  br label %67

67:                                               ; preds = %66, %65
  %68 = call i32 @H5E_clear_stack()
  %69 = load i32, ptr %2, align 4
  %70 = icmp slt i32 %69, 0
  br i1 %70, label %74, label %71

71:                                               ; preds = %67
  %72 = load i32, ptr %2, align 4
  %73 = icmp sgt i32 %72, 65535
  br i1 %73, label %74, label %89

74:                                               ; preds = %71, %67
  br label %75

75:                                               ; preds = %74
  br label %76

76:                                               ; preds = %75
  br label %77

77:                                               ; preds = %76
  %78 = load i64, ptr @H5E_ARGS_g, align 8
  %79 = load i64, ptr @H5E_BADVALUE_g, align 8
  %80 = call i32 (ptr, ptr, i32, i64, i64, ptr, ...) @H5E_printf_stack(ptr noundef @.str, ptr noundef @__func__.H5Zunregister, i32 noundef 363, i64 noundef %78, i64 noundef %79, ptr noundef @.str.9)
  br label %81

81:                                               ; preds = %77
  store i8 1, ptr %5, align 1
  %82 = load i8, ptr %5, align 1
  %83 = trunc i8 %82 to i1
  %84 = zext i1 %83 to i8
  store i8 %84, ptr %5, align 1
  br label %85

85:                                               ; preds = %81
  br label %86

86:                                               ; preds = %85
  store i32 -1, ptr %3, align 4
  br label %127

87:                                               ; No predecessors!
  br label %88

88:                                               ; preds = %87
  br label %89

89:                                               ; preds = %88, %71
  %90 = load i32, ptr %2, align 4
  %91 = icmp slt i32 %90, 256
  br i1 %91, label %92, label %107

92:                                               ; preds = %89
  br label %93

93:                                               ; preds = %92
  br label %94

94:                                               ; preds = %93
  br label %95

95:                                               ; preds = %94
  %96 = load i64, ptr @H5E_ARGS_g, align 8
  %97 = load i64, ptr @H5E_BADVALUE_g, align 8
  %98 = call i32 (ptr, ptr, i32, i64, i64, ptr, ...) @H5E_printf_stack(ptr noundef @.str, ptr noundef @__func__.H5Zunregister, i32 noundef 365, i64 noundef %96, i64 noundef %97, ptr noundef @.str.10)
  br label %99

99:                                               ; preds = %95
  store i8 1, ptr %5, align 1
  %100 = load i8, ptr %5, align 1
  %101 = trunc i8 %100 to i1
  %102 = zext i1 %101 to i8
  store i8 %102, ptr %5, align 1
  br label %103

103:                                              ; preds = %99
  br label %104

104:                                              ; preds = %103
  store i32 -1, ptr %3, align 4
  br label %127

105:                                              ; No predecessors!
  br label %106

106:                                              ; preds = %105
  br label %107

107:                                              ; preds = %106, %89
  %108 = load i32, ptr %2, align 4
  %109 = call i32 @H5Z__unregister(i32 noundef %108)
  %110 = icmp slt i32 %109, 0
  br i1 %110, label %111, label %126

111:                                              ; preds = %107
  br label %112

112:                                              ; preds = %111
  br label %113

113:                                              ; preds = %112
  br label %114

114:                                              ; preds = %113
  %115 = load i64, ptr @H5E_PLINE_g, align 8
  %116 = load i64, ptr @H5E_CANTINIT_g, align 8
  %117 = call i32 (ptr, ptr, i32, i64, i64, ptr, ...) @H5E_printf_stack(ptr noundef @.str, ptr noundef @__func__.H5Zunregister, i32 noundef 369, i64 noundef %115, i64 noundef %116, ptr noundef @.str.14)
  br label %118

118:                                              ; preds = %114
  store i8 1, ptr %5, align 1
  %119 = load i8, ptr %5, align 1
  %120 = trunc i8 %119 to i1
  %121 = zext i1 %120 to i8
  store i8 %121, ptr %5, align 1
  br label %122

122:                                              ; preds = %118
  br label %123

123:                                              ; preds = %122
  store i32 -1, ptr %3, align 4
  br label %127

124:                                              ; No predecessors!
  br label %125

125:                                              ; preds = %124
  br label %126

126:                                              ; preds = %125, %107
  br label %127

127:                                              ; preds = %126, %123, %104, %86, %63, %39
  %128 = load i8, ptr %4, align 1
  %129 = trunc i8 %128 to i1
  %130 = xor i1 %129, true
  %131 = xor i1 %130, true
  %132 = zext i1 %131 to i32
  %133 = sext i32 %132 to i64
  %134 = icmp ne i64 %133, 0
  br i1 %134, label %135, label %137

135:                                              ; preds = %127
  %136 = call i32 @H5CX_pop(i1 noundef zeroext true)
  store i8 0, ptr %4, align 1
  br label %137

137:                                              ; preds = %135, %127
  %138 = load i8, ptr %5, align 1
  %139 = trunc i8 %138 to i1
  %140 = xor i1 %139, true
  %141 = xor i1 %140, true
  %142 = zext i1 %141 to i32
  %143 = sext i32 %142 to i64
  %144 = icmp ne i64 %143, 0
  br i1 %144, label %145, label %147

145:                                              ; preds = %137
  %146 = call i32 @H5E_dump_api_stack()
  br label %147

147:                                              ; preds = %145, %137
  %148 = load i32, ptr %3, align 4
  ret i32 %148
}