; Function Attrs: nounwind uwtable
define range(i32 -1, 1) i32 @H5Zunregister(i32 noundef %0) local_unnamed_addr #0 {
  %2 = load i8, ptr @H5_libinit_g, align 1
  %3 = trunc i8 %2 to i1
  %4 = load i8, ptr @H5_libterm_g, align 1
  %5 = trunc i8 %4 to i1
  %6 = select i1 %3, i1 true, i1 %5
  br i1 %6, label %14, label %7

7:                                                ; preds = %1
  %8 = tail call i32 @H5_init_library() #9
  %9 = icmp slt i32 %8, 0
  br i1 %9, label %10, label %14

10:                                               ; preds = %7
  %11 = load i64, ptr @H5E_FUNC_g, align 8
  %12 = load i64, ptr @H5E_CANTINIT_g, align 8
  %13 = tail call i32 (ptr, ptr, i32, i64, i64, ptr, ...) @H5E_printf_stack(ptr noundef nonnull @.str, ptr noundef nonnull @__func__.H5Zunregister, i32 noundef 359, i64 noundef %11, i64 noundef %12, ptr noundef nonnull @.str.6) #9
  br label %.thread24

14:                                               ; preds = %7, %1
  %15 = tail call i32 @H5CX_push() #9
  %16 = icmp slt i32 %15, 0
  br i1 %16, label %17, label %21

17:                                               ; preds = %14
  %18 = load i64, ptr @H5E_FUNC_g, align 8
  %19 = load i64, ptr @H5E_CANTSET_g, align 8
  %20 = tail call i32 (ptr, ptr, i32, i64, i64, ptr, ...) @H5E_printf_stack(ptr noundef nonnull @.str, ptr noundef nonnull @__func__.H5Zunregister, i32 noundef 359, i64 noundef %18, i64 noundef %19, ptr noundef nonnull @.str.7) #9
  br label %.thread24

21:                                               ; preds = %14
  %22 = tail call i32 @H5E_clear_stack() #9
  %or.cond = icmp ugt i32 %0, 65535
  br i1 %or.cond, label %23, label %27

23:                                               ; preds = %21
  %24 = load i64, ptr @H5E_ARGS_g, align 8
  %25 = load i64, ptr @H5E_BADVALUE_g, align 8
  %26 = tail call i32 (ptr, ptr, i32, i64, i64, ptr, ...) @H5E_printf_stack(ptr noundef nonnull @.str, ptr noundef nonnull @__func__.H5Zunregister, i32 noundef 363, i64 noundef %24, i64 noundef %25, ptr noundef nonnull @.str.9) #9
  br label %.thread30

27:                                               ; preds = %21
  %28 = icmp ult i32 %0, 256
  br i1 %28, label %29, label %33

29:                                               ; preds = %27
  %30 = load i64, ptr @H5E_ARGS_g, align 8
  %31 = load i64, ptr @H5E_BADVALUE_g, align 8
  %32 = tail call i32 (ptr, ptr, i32, i64, i64, ptr, ...) @H5E_printf_stack(ptr noundef nonnull @.str, ptr noundef nonnull @__func__.H5Zunregister, i32 noundef 365, i64 noundef %30, i64 noundef %31, ptr noundef nonnull @.str.10) #9
  br label %.thread30

33:                                               ; preds = %27
  %34 = tail call i32 @H5Z__unregister(i32 noundef %0)
  %35 = icmp slt i32 %34, 0
  br i1 %35, label %36, label %41

36:                                               ; preds = %33
  %37 = load i64, ptr @H5E_PLINE_g, align 8
  %38 = load i64, ptr @H5E_CANTINIT_g, align 8
  %39 = tail call i32 (ptr, ptr, i32, i64, i64, ptr, ...) @H5E_printf_stack(ptr noundef nonnull @.str, ptr noundef nonnull @__func__.H5Zunregister, i32 noundef 369, i64 noundef %37, i64 noundef %38, ptr noundef nonnull @.str.14) #9
  br label %.thread30

.thread30:                                        ; preds = %36, %29, %23
  %40 = tail call i32 @H5CX_pop(i1 noundef zeroext true) #9
  br label %.thread24

41:                                               ; preds = %33
  %42 = tail call i32 @H5CX_pop(i1 noundef zeroext true) #9
  br label %44

.thread24:                                        ; preds = %17, %10, %.thread30
  %43 = tail call i32 @H5E_dump_api_stack() #9
  br label %44

44:                                               ; preds = %41, %.thread24
  %.0141927 = phi i32 [ -1, %.thread24 ], [ 0, %41 ]
  ret i32 %.0141927
}